; Function Attrs: nounwind uwtable
define internal noundef i32 @luaB_rawget(ptr noundef %0) #0 {
  %2 = getelementptr inbounds nuw i8, ptr %0, i64 24
  %3 = load ptr, ptr %2, align 8, !tbaa !86
  %4 = getelementptr inbounds nuw i8, ptr %0, i64 16
  %5 = load ptr, ptr %4, align 8, !tbaa !62
  %.not28.i.i.i = icmp uge ptr %3, %5
  %6 = icmp eq ptr %3, @luaO_nilobject_
  %or.cond.i = or i1 %6, %.not28.i.i.i
  br i1 %or.cond.i, label %lua_type.exit.thread.i, label %lua_type.exit.i

lua_type.exit.i:                                  ; preds = %1
  %7 = getelementptr i8, ptr %3, i64 8
  %8 = load i32, ptr %7, align 8, !tbaa !69
  %.not.i = icmp eq i32 %8, 5
  br i1 %.not.i, label %luaL_checktype.exit, label %lua_type.exit.thread.i

lua_type.exit.thread.i:                           ; preds = %lua_type.exit.i, %1
  tail call fastcc void @luaL_typerror(ptr noundef nonnull %0, i32 noundef 1, ptr noundef nonnull @.str.27)
  unreachable

luaL_checktype.exit:                              ; preds = %lua_type.exit.i
  %9 = getelementptr i8, ptr %3, i64 32
  %10 = getelementptr i8, ptr %3, i64 16
  %.not28.i.i.i4 = icmp uge ptr %10, %5
  %11 = icmp eq ptr %10, @luaO_nilobject_
  %or.cond.i5 = or i1 %.not28.i.i.i4, %11
  br i1 %or.cond.i5, label %lua_type.exit.thread.i7, label %lua_type.exit.i6

lua_type.exit.i6:                                 ; preds = %luaL_checktype.exit
  %12 = getelementptr i8, ptr %3, i64 24
  %13 = load i32, ptr %12, align 8, !tbaa !69
  %14 = icmp eq i32 %13, -1
  br i1 %14, label %lua_type.exit.thread.i7, label %luaL_checkany.exit

lua_type.exit.thread.i7:                          ; preds = %lua_type.exit.i6, %luaL_checktype.exit
  tail call fastcc void @luaL_argerror(ptr noundef nonnull %0, i32 noundef 2, ptr noundef nonnull @.str.117)
  unreachable

luaL_checkany.exit:                               ; preds = %lua_type.exit.i6
  %15 = icmp ult ptr %5, %9
  br i1 %15, label %.lr.ph.i, label %lua_settop.exit

.lr.ph.i:                                         ; preds = %luaL_checkany.exit, %.lr.ph.i
  %16 = phi ptr [ %17, %.lr.ph.i ], [ %5, %luaL_checkany.exit ]
  %17 = getelementptr inbounds nuw i8, ptr %16, i64 16
  %18 = getelementptr inbounds nuw i8, ptr %16, i64 8
  store i32 0, ptr %18, align 8, !tbaa !69
  %19 = icmp ult ptr %17, %9
  br i1 %19, label %.lr.ph.i, label %lua_settop.exit, !llvm.loop !110

lua_settop.exit:                                  ; preds = %.lr.ph.i, %luaL_checkany.exit
  store ptr %9, ptr %4, align 8, !tbaa !62
  %.not28.i.i = icmp ult ptr %3, %9
  %.luaO_nilobject_.i.i = select i1 %.not28.i.i, ptr %3, ptr @luaO_nilobject_
  %20 = load ptr, ptr %.luaO_nilobject_.i.i, align 8, !tbaa !46
  %21 = tail call fastcc ptr @luaH_get(ptr noundef %20, ptr noundef nonnull %10)
  %22 = load i64, ptr %21, align 8, !tbaa !46
  store i64 %22, ptr %10, align 8, !tbaa !46
  %23 = getelementptr inbounds nuw i8, ptr %21, i64 8
  %24 = load i32, ptr %23, align 8, !tbaa !69
  store i32 %24, ptr %12, align 8, !tbaa !69
  ret i32 1
}